BL51 BANKED LINKER/LOCATER V6.22                                                        07/25/2015  11:04:00  PAGE 1


BL51 BANKED LINKER/LOCATER V6.22, INVOKED BY:
D:\KEIL_V5\C51\BIN\BL51.EXE STARTUP.obj, main.obj TO test3 RAMSIZE (256)


MEMORY MODEL: SMALL WITH FLOATING POINT ARITHMETIC


INPUT MODULES INCLUDED:
  STARTUP.obj (?C_STARTUP)
  main.obj (MAIN)
  D:\KEIL_V5\C51\LIB\C51FPS.LIB (?C?FPMUL)
  D:\KEIL_V5\C51\LIB\C51FPS.LIB (?C?FCAST)
  D:\KEIL_V5\C51\LIB\C51FPS.LIB (?C?CASTF)
  D:\KEIL_V5\C51\LIB\C51FPS.LIB (?C?FPGETOPN)
  D:\KEIL_V5\C51\LIB\C51S.LIB (?C_INIT)
  D:\KEIL_V5\C51\LIB\C51S.LIB (?C?CLDPTR)
  D:\KEIL_V5\C51\LIB\C51S.LIB (?C?CSTPTR)
  D:\KEIL_V5\C51\LIB\C51S.LIB (?C?LNEG)
  D:\KEIL_V5\C51\LIB\C51S.LIB (STRCAT)
  D:\KEIL_V5\C51\LIB\C51S.LIB (STRLEN)


LINK MAP OF MODULE:  test3 (?C_STARTUP)


            TYPE    BASE      LENGTH    RELOCATION   SEGMENT NAME
            -----------------------------------------------------

            * * * * * * *   D A T A   M E M O R Y   * * * * * * *
            REG     0000H     0008H     ABSOLUTE     "REG BANK 0"
            DATA    0008H     0009H     UNIT         _DATA_GROUP_
                    0011H     000FH                  *** GAP ***
            BIT     0020H.0   0000H.2   UNIT         ?BI?MAIN
                    0020H.2   0000H.6                *** GAP ***
            DATA    0021H     0052H     UNIT         ?DT?MAIN
            IDATA   0073H     0001H     UNIT         ?STACK

            * * * * * * *   C O D E   M E M O R Y   * * * * * * *
            CODE    0000H     0003H     ABSOLUTE     
                    0003H     0008H                  *** GAP ***
            CODE    000BH     0003H     ABSOLUTE     
            CODE    000EH     000BH     UNIT         ?CO?MAIN
                    0019H     0002H                  *** GAP ***
            CODE    001BH     0003H     ABSOLUTE     
                    001EH     0005H                  *** GAP ***
            CODE    0023H     0003H     ABSOLUTE     
            CODE    0026H     01FEH     UNIT         ?C?LIB_CODE
            CODE    0224H     00A5H     UNIT         ?PR?UART0_INTERRUPT?MAIN
            CODE    02C9H     008CH     UNIT         ?C_C51STARTUP
            CODE    0355H     0062H     UNIT         ?PR?OSCILLATOR_INIT?MAIN
            CODE    03B7H     0059H     UNIT         ?PR?_TIMER1_INIT?MAIN
            CODE    0410H     0058H     UNIT         ?PR?_STRCAT?STRCAT
            CODE    0468H     0056H     UNIT         ?PR?_TIMER0_INIT?MAIN
            CODE    04BEH     0053H     UNIT         ?PR?MAIN?MAIN
            CODE    0511H     004BH     UNIT         ?PR?RERANGETHEBUFFERQUEUE?MAIN
            CODE    055CH     003AH     UNIT         ?PR?TIMER0_ISR?MAIN
            CODE    0596H     003AH     UNIT         ?PR?TIMER1_ISR?MAIN
            CODE    05D0H     0029H     UNIT         ?PR?WIRELESSMODULE_INIT?MAIN
BL51 BANKED LINKER/LOCATER V6.22                                                      07/25/2015  11:04:00  PAGE 2


            CODE    05F9H     0028H     UNIT         ?PR?UART0_INIT?MAIN
            CODE    0621H     0028H     UNIT         ?C_INITSEG
            CODE    0649H     001AH     UNIT         ?PR?PORT_INIT?MAIN
            CODE    0663H     0016H     UNIT         ?PR?_UART0_SENDBYTE?MAIN
            CODE    0679H     0015H     UNIT         ?PR?_STRLEN?STRLEN



OVERLAY MAP OF MODULE:   test3 (?C_STARTUP)


SEGMENT                                  DATA_GROUP 
  +--> CALLED SEGMENT                  START    LENGTH
------------------------------------------------------
?C_C51STARTUP                          -----    -----
  +--> ?PR?MAIN?MAIN
  +--> ?C_INITSEG

?PR?MAIN?MAIN                          -----    -----
  +--> ?PR?OSCILLATOR_INIT?MAIN
  +--> ?PR?PORT_INIT?MAIN
  +--> ?PR?_TIMER0_INIT?MAIN
  +--> ?PR?_TIMER1_INIT?MAIN
  +--> ?PR?UART0_INIT?MAIN
  +--> ?PR?WIRELESSMODULE_INIT?MAIN
  +--> ?PR?_UART0_SENDBYTE?MAIN

?PR?_TIMER0_INIT?MAIN                  0008H    0003H

?PR?_TIMER1_INIT?MAIN                  0008H    0003H

?PR?WIRELESSMODULE_INIT?MAIN           -----    -----
  +--> ?CO?MAIN
  +--> ?PR?_STRCAT?STRCAT
  +--> ?PR?_STRLEN?STRLEN

?PR?_STRCAT?STRCAT                     0008H    0009H

*** NEW ROOT ***************************************************

?PR?UART0_INTERRUPT?MAIN               -----    -----
  +--> ?PR?RERANGETHEBUFFERQUEUE?MAIN



SYMBOL TABLE OF MODULE:  test3 (?C_STARTUP)

  VALUE           TYPE          NAME
  ----------------------------------

  -------         MODULE        ?C_STARTUP
  C:02C9H         SEGMENT       ?C_C51STARTUP
  I:0073H         SEGMENT       ?STACK
  C:0000H         PUBLIC        ?C_STARTUP
  D:00E0H         SYMBOL        ACC
  D:00F0H         SYMBOL        B
  D:0083H         SYMBOL        DPH
BL51 BANKED LINKER/LOCATER V6.22                                                      07/25/2015  11:04:00  PAGE 3


  D:0082H         SYMBOL        DPL
  N:0000H         SYMBOL        IBPSTACK
  N:0100H         SYMBOL        IBPSTACKTOP
  N:0080H         SYMBOL        IDATALEN
  C:02CCH         SYMBOL        IDATALOOP
  N:0000H         SYMBOL        PBPSTACK
  N:0100H         SYMBOL        PBPSTACKTOP
  N:0000H         SYMBOL        PDATALEN
  N:0000H         SYMBOL        PDATASTART
  N:0000H         SYMBOL        PPAGE
  N:0000H         SYMBOL        PPAGEENABLE
  D:00A0H         SYMBOL        PPAGE_SFR
  D:0081H         SYMBOL        SP
  C:02C9H         SYMBOL        STARTUP1
  N:0000H         SYMBOL        XBPSTACK
  N:0000H         SYMBOL        XBPSTACKTOP
  N:0000H         SYMBOL        XDATALEN
  N:0000H         SYMBOL        XDATASTART
  C:0000H         LINE#         126
  C:02C9H         LINE#         133
  C:02CBH         LINE#         134
  C:02CCH         LINE#         135
  C:02CDH         LINE#         136
  C:02CFH         LINE#         185
  C:02D2H         LINE#         196
  -------         ENDMOD        ?C_STARTUP

  -------         MODULE        MAIN
  C:0000H         SYMBOL        _ICE_DUMMY_
  D:008FH         PUBLIC        PLL0FLT
  D:00FFH         PUBLIC        WDTCN
  D:00B0H         PUBLIC        P3
  C:055CH         PUBLIC        Timer0_ISR
  B:0020H.0       PUBLIC        pwm1_flag
  C:0596H         PUBLIC        Timer1_ISR
  D:0021H         PUBLIC        TX_Ready
  B:0020H.1       PUBLIC        pwm3_flag
  B:00A8H.7       PUBLIC        EA
  D:008EH         PUBLIC        PLL0MUL
  D:0084H         PUBLIC        SFRPAGE
  D:00A4H         PUBLIC        P0MDOUT
  D:00A5H         PUBLIC        P1MDOUT
  D:00A7H         PUBLIC        P3MDOUT
  D:0022H         PUBLIC        PWM1_HighLevelCount
  D:0024H         PUBLIC        PWM3_HighLevelCount
  D:0026H         SYMBOL        Byte
  D:00B8H         PUBLIC        IP
  D:00E1H         PUBLIC        XBR0
  D:00E2H         PUBLIC        XBR1
  D:00E3H         PUBLIC        XBR2
  C:0224H         PUBLIC        UART0_Interrupt
  B:00B0H.2       PUBLIC        PWM1
  D:00CCH         PUBLIC        TMR2
  C:04BEH         PUBLIC        main
  B:00B0H.3       PUBLIC        PWM3
  C:0468H         PUBLIC        _TIMER0_Init
  C:03B7H         PUBLIC        _TIMER1_Init
BL51 BANKED LINKER/LOCATER V6.22                                                      07/25/2015  11:04:00  PAGE 4


  D:0089H         PUBLIC        PLL0CN
  D:00C9H         PUBLIC        TMR2CF
  C:05D0H         PUBLIC        WirelessModule_Init
  D:0089H         PUBLIC        TMOD
  D:0088H         PUBLIC        TCON
  D:00C8H         PUBLIC        TMR2CN
  C:0649H         PUBLIC        PORT_Init
  D:0097H         PUBLIC        CLKSEL
  D:008AH         PUBLIC        OSCICN
  D:0027H         PUBLIC        PWM1_LowLevelCount
  D:0029H         PUBLIC        PWM3_LowLevelCount
  B:00A8H.4       PUBLIC        ES0
  B:00A8H.1       PUBLIC        ET0
  B:00A8H.3       PUBLIC        ET1
  B:0088H.5       PUBLIC        TF0
  B:0098H.0       PUBLIC        RI0
  B:0088H.7       PUBLIC        TF1
  D:002BH         PUBLIC        TxOrder
  D:008CH         PUBLIC        TH0
  B:0098H.1       PUBLIC        TI0
  D:008DH         PUBLIC        TH1
  D:008CH         PUBLIC        OSCXCN
  D:008AH         PUBLIC        TL0
  D:008BH         PUBLIC        TL1
  C:0663H         PUBLIC        _Uart0_SendByte
  C:0511H         PUBLIC        RerangeTheBufferQueue
  B:0088H.4       PUBLIC        TR0
  B:0088H.6       PUBLIC        TR1
  B:00C8H.2       PUBLIC        TR2
  D:002CH         PUBLIC        UART_Buffer_QueueHead
  D:00CAH         PUBLIC        RCAP2
  D:002FH         PUBLIC        UART_Buffer_QueueBottom
  D:0099H         PUBLIC        SBUF0
  D:0032H         PUBLIC        TxByte
  D:0033H         PUBLIC        UART_Buffer_Queue
  C:05F9H         PUBLIC        UART0_Init
  D:0098H         PUBLIC        SCON0
  D:0091H         PUBLIC        SSTA0
  D:008EH         PUBLIC        CKCON
  D:00B7H         PUBLIC        FLSCL
  C:0355H         PUBLIC        OSCILLATOR_Init
  D:008DH         PUBLIC        PLL0DIV
  -------         PROC          MAIN
  C:04BEH         LINE#         102
  C:04BEH         LINE#         103
  C:04BEH         LINE#         105
  C:04C1H         LINE#         107
  C:04C4H         LINE#         108
  C:04C7H         LINE#         110
  C:04CAH         LINE#         111
  C:04CDH         LINE#         112
  C:04D4H         LINE#         113
  C:04DBH         LINE#         115
  C:04DEH         LINE#         116
  C:04E1H         LINE#         117
  C:04E3H         LINE#         119
  C:04E6H         LINE#         121
BL51 BANKED LINKER/LOCATER V6.22                                                      07/25/2015  11:04:00  PAGE 5


  C:04E6H         LINE#         122
  C:04E6H         LINE#         123
  C:04F7H         LINE#         124
  C:04F7H         LINE#         125
  C:0504H         LINE#         126
  C:050FH         LINE#         127
  C:050FH         LINE#         128
  -------         ENDPROC       MAIN
  -------         PROC          OSCILLATOR_INIT
  -------         DO            
  D:0004H         SYMBOL        i
  D:0007H         SYMBOL        SFRPAGE_SAVE
  -------         ENDDO         
  C:0355H         LINE#         146
  C:0355H         LINE#         147
  C:0355H         LINE#         150
  C:0357H         LINE#         152
  C:035AH         LINE#         154
  C:035DH         LINE#         157
  C:0360H         LINE#         162
  C:0363H         LINE#         163
  C:0372H         LINE#         165
  C:0377H         LINE#         167
  C:037AH         LINE#         168
  C:037DH         LINE#         171
  C:037DH         LINE#         173
  C:037DH         LINE#         174
  C:037DH         LINE#         176
  C:0380H         LINE#         177
  C:0380H         LINE#         179
  C:0380H         LINE#         180
  C:0380H         LINE#         181
  C:0380H         LINE#         182
  C:0380H         LINE#         185
  C:0383H         LINE#         186
  C:0386H         LINE#         187
  C:0389H         LINE#         188
  C:038CH         LINE#         189
  C:038FH         LINE#         190
  C:0392H         LINE#         191
  C:0395H         LINE#         192
  C:0398H         LINE#         194
  C:039BH         LINE#         197
  C:03ABH         LINE#         199
  C:03AEH         LINE#         201
  C:03AEH         LINE#         203
  C:03B1H         LINE#         205
  C:03B4H         LINE#         207
  C:03B6H         LINE#         208
  -------         ENDPROC       OSCILLATOR_INIT
  -------         PROC          PORT_INIT
  -------         DO            
  D:0007H         SYMBOL        SFRPAGE_SAVE
  -------         ENDDO         
  C:0649H         LINE#         223
  C:0649H         LINE#         224
  C:0649H         LINE#         225
BL51 BANKED LINKER/LOCATER V6.22                                                      07/25/2015  11:04:00  PAGE 6


  C:064BH         LINE#         227
  C:064EH         LINE#         229
  C:0651H         LINE#         230
  C:0654H         LINE#         231
  C:0657H         LINE#         234
  C:065AH         LINE#         235
  C:065DH         LINE#         236
  C:0660H         LINE#         237
  C:0662H         LINE#         238
  -------         ENDPROC       PORT_INIT
  -------         PROC          UART0_INIT
  -------         DO            
  D:0007H         SYMBOL        SFRPAGE_SAVE
  -------         ENDDO         
  C:05F9H         LINE#         252
  C:05F9H         LINE#         253
  C:05F9H         LINE#         256
  C:05FBH         LINE#         258
  C:05FEH         LINE#         260
  C:0600H         LINE#         262
  C:0603H         LINE#         264
  C:0609H         LINE#         265
  C:060FH         LINE#         266
  C:0611H         LINE#         268
  C:0613H         LINE#         270
  C:0616H         LINE#         273
  C:0619H         LINE#         278
  C:061BH         LINE#         279
  C:061EH         LINE#         281
  C:0620H         LINE#         282
  -------         ENDPROC       UART0_INIT
  -------         PROC          UART0_INTERRUPT
  C:0224H         LINE#         298
  C:0241H         LINE#         300
  C:0244H         LINE#         302
  C:025DH         LINE#         303
  C:025DH         LINE#         304
  C:025FH         LINE#         305
  C:0262H         LINE#         307
  C:0270H         LINE#         308
  C:0270H         LINE#         309
  C:027BH         LINE#         310
  C:0286H         LINE#         311
  C:0294H         LINE#         312
  C:0294H         LINE#         313
  C:0296H         LINE#         315
  C:0299H         LINE#         316
  C:0299H         LINE#         318
  C:029CH         LINE#         319
  C:029CH         LINE#         320
  C:029EH         LINE#         321
  C:02A3H         LINE#         322
  C:02A3H         LINE#         323
  C:02A6H         LINE#         324
  C:02A9H         LINE#         325
  C:02ABH         LINE#         327
  C:02ABH         LINE#         328
BL51 BANKED LINKER/LOCATER V6.22                                                      07/25/2015  11:04:00  PAGE 7


  C:02AEH         LINE#         329
  C:02AEH         LINE#         330
  C:02AEH         LINE#         331
  -------         ENDPROC       UART0_INTERRUPT
  -------         PROC          RERANGETHEBUFFERQUEUE
  -------         DO            
  D:0006H         SYMBOL        count
  D:0004H         SYMBOL        i
  -------         ENDDO         
  C:0511H         LINE#         339
  C:0511H         LINE#         340
  C:0511H         LINE#         341
  C:051CH         LINE#         342
  C:051FH         LINE#         343
  C:052CH         LINE#         344
  C:052CH         LINE#         345
  C:0532H         LINE#         346
  C:053DH         LINE#         348
  C:0544H         LINE#         349
  C:054DH         LINE#         350
  C:055BH         LINE#         351
  -------         ENDPROC       RERANGETHEBUFFERQUEUE
  -------         PROC          WIRELESSMODULE_INIT
  C:05D0H         LINE#         357
  C:05D0H         LINE#         358
  C:05D0H         LINE#         359
  C:05D3H         LINE#         360
  C:05E5H         LINE#         361
  C:05F8H         LINE#         362
  -------         ENDPROC       WIRELESSMODULE_INIT
  -------         PROC          _UART0_SENDBYTE
  D:0007H         SYMBOL        value
  -------         DO            
  D:0006H         SYMBOL        SFRPAGE_SAVE
  -------         ENDDO         
  C:0663H         LINE#         368
  C:0663H         LINE#         369
  C:0663H         LINE#         370
  C:0665H         LINE#         371
  C:0668H         LINE#         373
  C:066CH         LINE#         374
  C:066FH         LINE#         375
  C:0672H         LINE#         376
  C:0674H         LINE#         377
  C:0676H         LINE#         380
  C:0678H         LINE#         381
  -------         ENDPROC       _UART0_SENDBYTE
  -------         PROC          _TIMER0_INIT
  D:0008H         SYMBOL        count
  -------         DO            
  D:000AH         SYMBOL        SFRPAGE_SAVE
  -------         ENDDO         
  C:0468H         LINE#         382
  C:046CH         LINE#         383
  C:046CH         LINE#         385
  C:046FH         LINE#         386
  C:0488H         LINE#         387
BL51 BANKED LINKER/LOCATER V6.22                                                      07/25/2015  11:04:00  PAGE 8


  C:04A2H         LINE#         388
  C:04A5H         LINE#         389
  C:04A8H         LINE#         390
  C:04A8H         LINE#         391
  C:04ABH         LINE#         392
  C:04AEH         LINE#         393
  C:04B0H         LINE#         394
  C:04B4H         LINE#         395
  C:04B6H         LINE#         396
  C:04B8H         LINE#         397
  C:04BAH         LINE#         398
  C:04BDH         LINE#         399
  -------         ENDPROC       _TIMER0_INIT
  -------         PROC          _TIMER1_INIT
  D:0008H         SYMBOL        count
  -------         DO            
  D:000AH         SYMBOL        SFRPAGE_SAVE
  -------         ENDDO         
  C:03B7H         LINE#         400
  C:03BBH         LINE#         401
  C:03BBH         LINE#         402
  C:03BEH         LINE#         403
  C:03D7H         LINE#         404
  C:03F1H         LINE#         405
  C:03F4H         LINE#         406
  C:03F7H         LINE#         408
  C:03FAH         LINE#         409
  C:03FDH         LINE#         411
  C:0400H         LINE#         412
  C:0402H         LINE#         413
  C:0406H         LINE#         414
  C:0408H         LINE#         415
  C:040AH         LINE#         416
  C:040CH         LINE#         417
  C:040FH         LINE#         418
  -------         ENDPROC       _TIMER1_INIT
  -------         PROC          TIMER0_ISR
  C:055CH         LINE#         419
  C:0560H         LINE#         421
  C:0563H         LINE#         422
  C:0563H         LINE#         424
  C:0565H         LINE#         425
  C:0567H         LINE#         426
  C:0572H         LINE#         427
  C:0577H         LINE#         428
  C:0579H         LINE#         430
  C:0579H         LINE#         432
  C:0579H         LINE#         433
  C:057BH         LINE#         434
  C:057DH         LINE#         435
  C:0588H         LINE#         436
  C:058FH         LINE#         437
  C:0591H         LINE#         439
  C:0591H         LINE#         440
  -------         ENDPROC       TIMER0_ISR
  -------         PROC          TIMER1_ISR
  C:0596H         LINE#         441
BL51 BANKED LINKER/LOCATER V6.22                                                      07/25/2015  11:04:00  PAGE 9


  C:059AH         LINE#         443
  C:059DH         LINE#         444
  C:059DH         LINE#         446
  C:059FH         LINE#         447
  C:05A1H         LINE#         448
  C:05ACH         LINE#         449
  C:05B1H         LINE#         450
  C:05B3H         LINE#         452
  C:05B3H         LINE#         454
  C:05B3H         LINE#         455
  C:05B5H         LINE#         456
  C:05B7H         LINE#         457
  C:05C2H         LINE#         458
  C:05C9H         LINE#         459
  C:05CBH         LINE#         461
  C:05CBH         LINE#         462
  -------         ENDPROC       TIMER1_ISR
  -------         ENDMOD        MAIN

  -------         MODULE        ?C?FPMUL
  C:0026H         PUBLIC        ?C?FPMUL
  -------         ENDMOD        ?C?FPMUL

  -------         MODULE        ?C?FCAST
  C:0136H         PUBLIC        ?C?FCASTC
  C:0131H         PUBLIC        ?C?FCASTI
  C:012CH         PUBLIC        ?C?FCASTL
  -------         ENDMOD        ?C?FCAST

  -------         MODULE        ?C?CASTF
  C:016AH         PUBLIC        ?C?CASTF
  -------         ENDMOD        ?C?CASTF

  -------         MODULE        ?C?CLDPTR
  C:01EBH         PUBLIC        ?C?CLDPTR
  -------         ENDMOD        ?C?CLDPTR

  -------         MODULE        ?C?CSTPTR
  C:0204H         PUBLIC        ?C?CSTPTR
  -------         ENDMOD        ?C?CSTPTR

  -------         MODULE        ?C?LNEG
  C:0216H         PUBLIC        ?C?LNEG
  -------         ENDMOD        ?C?LNEG

  -------         MODULE        STRCAT
  D:0008H         PUBLIC        ?_strcat?BYTE
  C:0410H         PUBLIC        _strcat
  -------         ENDMOD        STRCAT

  -------         MODULE        STRLEN
  C:0679H         PUBLIC        _STRLEN
  -------         ENDMOD        STRLEN

Program Size: data=100.2 xdata=0 code=1663
LINK/LOCATE RUN COMPLETE.  0 WARNING(S),  0 ERROR(S)
